target datalayout = "e-m:e-p270:32:32-p271:32:32-p272:64:64-i64:64-i128:128-f80:128-n8:16:32:64-S128"
target triple = "x86_64-pc-linux-gnu"

%struct.XML_Memory_Handling_Suite = type { ptr, ptr, ptr }
%struct.XML_ParserStruct = type { ptr, ptr, ptr, %struct.XML_Memory_Handling_Suite, ptr, ptr, ptr, i64, ptr, i64, i8, i32, ptr, ptr, ptr, ptr, ptr, ptr, ptr, ptr, ptr, ptr, ptr, ptr, ptr, ptr, ptr, ptr, ptr, ptr, ptr, ptr, ptr, ptr, ptr, ptr, ptr, ptr, %struct.INIT_ENCODING, ptr, ptr, i8, i8, ptr, ptr, ptr, ptr, %struct.prolog_state, ptr, i32, ptr, ptr, ptr, ptr, ptr, i8, i32, ptr, ptr, ptr, ptr, ptr, ptr, ptr, ptr, ptr, i8, i8, ptr, ptr, ptr, ptr, ptr, ptr, i32, i32, i32, ptr, ptr, i64, i8, %struct.position, %struct.STRING_POOL, %struct.STRING_POOL, ptr, i32, i8, ptr, %struct.XML_ParsingStatus, i64 }
%struct.INIT_ENCODING = type { %struct.encoding, ptr }
%struct.encoding = type { [3 x ptr], [2 x ptr], ptr, ptr, ptr, ptr, ptr, ptr, ptr, ptr, ptr, ptr, i32, i8, i8 }
%struct.prolog_state = type { ptr, i32, i32 }
%struct.position = type { i64, i64 }
%struct.STRING_POOL = type { ptr, ptr, ptr, ptr, ptr, ptr }
%struct.XML_ParsingStatus = type { i32, i8 }
%struct.open_internal_entity = type { ptr, ptr, ptr, ptr, i32, i8 }
%struct.ENTITY = type { ptr, ptr, i32, i32, ptr, ptr, ptr, ptr, i8, i8, i8 }

; Function Attrs: nounwind uwtable
define internal i32 @processInternalEntity(ptr noundef %0, ptr noundef %1, i8 noundef zeroext %2) #0 {
  %4 = alloca i32, align 4
  %5 = alloca ptr, align 8
  %6 = alloca ptr, align 8
  %7 = alloca i8, align 1
  %8 = alloca ptr, align 8
  %9 = alloca ptr, align 8
  %10 = alloca ptr, align 8
  %11 = alloca i32, align 4
  %12 = alloca ptr, align 8
  %13 = alloca i32, align 4
  store ptr %0, ptr %5, align 8, !tbaa !13
  store ptr %1, ptr %6, align 8, !tbaa !9
  store i8 %2, ptr %7, align 1, !tbaa !10
  call void @llvm.lifetime.start.p0(i64 8, ptr %8) #10
  call void @llvm.lifetime.start.p0(i64 8, ptr %9) #10
  call void @llvm.lifetime.start.p0(i64 8, ptr %10) #10
  call void @llvm.lifetime.start.p0(i64 4, ptr %11) #10
  call void @llvm.lifetime.start.p0(i64 8, ptr %12) #10
  %14 = load ptr, ptr %5, align 8, !tbaa !13
  %15 = getelementptr inbounds nuw %struct.XML_ParserStruct, ptr %14, i32 0, i32 54
  %16 = load ptr, ptr %15, align 8, !tbaa !44
  %17 = icmp ne ptr %16, null
  br i1 %17, label %18, label %27

18:                                               ; preds = %3
  %19 = load ptr, ptr %5, align 8, !tbaa !13
  %20 = getelementptr inbounds nuw %struct.XML_ParserStruct, ptr %19, i32 0, i32 54
  %21 = load ptr, ptr %20, align 8, !tbaa !44
  store ptr %21, ptr %12, align 8, !tbaa !67
  %22 = load ptr, ptr %12, align 8, !tbaa !67
  %23 = getelementptr inbounds nuw %struct.open_internal_entity, ptr %22, i32 0, i32 2
  %24 = load ptr, ptr %23, align 8, !tbaa !68
  %25 = load ptr, ptr %5, align 8, !tbaa !13
  %26 = getelementptr inbounds nuw %struct.XML_ParserStruct, ptr %25, i32 0, i32 54
  store ptr %24, ptr %26, align 8, !tbaa !44
  br label %37

27:                                               ; preds = %3
  %28 = load ptr, ptr %5, align 8, !tbaa !13
  %29 = getelementptr inbounds nuw %struct.XML_ParserStruct, ptr %28, i32 0, i32 3
  %30 = getelementptr inbounds nuw %struct.XML_Memory_Handling_Suite, ptr %29, i32 0, i32 0
  %31 = load ptr, ptr %30, align 8, !tbaa !36
  %32 = call ptr %31(i64 noundef 40)
  store ptr %32, ptr %12, align 8, !tbaa !67
  %33 = load ptr, ptr %12, align 8, !tbaa !67
  %34 = icmp ne ptr %33, null
  br i1 %34, label %36, label %35

35:                                               ; preds = %27
  store i32 1, ptr %4, align 4
  store i32 1, ptr %13, align 4
  br label %138

36:                                               ; preds = %27
  br label %37

37:                                               ; preds = %36, %18
  %38 = load ptr, ptr %6, align 8, !tbaa !9
  %39 = getelementptr inbounds nuw %struct.ENTITY, ptr %38, i32 0, i32 8
  store i8 1, ptr %39, align 8, !tbaa !186
  %40 = load ptr, ptr %6, align 8, !tbaa !9
  %41 = getelementptr inbounds nuw %struct.ENTITY, ptr %40, i32 0, i32 3
  store i32 0, ptr %41, align 4, !tbaa !299
  %42 = load ptr, ptr %5, align 8, !tbaa !13
  %43 = getelementptr inbounds nuw %struct.XML_ParserStruct, ptr %42, i32 0, i32 53
  %44 = load ptr, ptr %43, align 8, !tbaa !66
  %45 = load ptr, ptr %12, align 8, !tbaa !67
  %46 = getelementptr inbounds nuw %struct.open_internal_entity, ptr %45, i32 0, i32 2
  store ptr %44, ptr %46, align 8, !tbaa !68
  %47 = load ptr, ptr %12, align 8, !tbaa !67
  %48 = load ptr, ptr %5, align 8, !tbaa !13
  %49 = getelementptr inbounds nuw %struct.XML_ParserStruct, ptr %48, i32 0, i32 53
  store ptr %47, ptr %49, align 8, !tbaa !66
  %50 = load ptr, ptr %6, align 8, !tbaa !9
  %51 = load ptr, ptr %12, align 8, !tbaa !67
  %52 = getelementptr inbounds nuw %struct.open_internal_entity, ptr %51, i32 0, i32 3
  store ptr %50, ptr %52, align 8, !tbaa !300
  %53 = load ptr, ptr %5, align 8, !tbaa !13
  %54 = getelementptr inbounds nuw %struct.XML_ParserStruct, ptr %53, i32 0, i32 56
  %55 = load i32, ptr %54, align 4, !tbaa !138
  %56 = load ptr, ptr %12, align 8, !tbaa !67
  %57 = getelementptr inbounds nuw %struct.open_internal_entity, ptr %56, i32 0, i32 4
  store i32 %55, ptr %57, align 8, !tbaa !301
  %58 = load i8, ptr %7, align 1, !tbaa !10
  %59 = load ptr, ptr %12, align 8, !tbaa !67
  %60 = getelementptr inbounds nuw %struct.open_internal_entity, ptr %59, i32 0, i32 5
  store i8 %58, ptr %60, align 4, !tbaa !302
  %61 = load ptr, ptr %12, align 8, !tbaa !67
  %62 = getelementptr inbounds nuw %struct.open_internal_entity, ptr %61, i32 0, i32 0
  store ptr null, ptr %62, align 8, !tbaa !214
  %63 = load ptr, ptr %12, align 8, !tbaa !67
  %64 = getelementptr inbounds nuw %struct.open_internal_entity, ptr %63, i32 0, i32 1
  store ptr null, ptr %64, align 8, !tbaa !215
  %65 = load ptr, ptr %6, align 8, !tbaa !9
  %66 = getelementptr inbounds nuw %struct.ENTITY, ptr %65, i32 0, i32 1
  %67 = load ptr, ptr %66, align 8, !tbaa !241
  store ptr %67, ptr %8, align 8, !tbaa !4
  %68 = load ptr, ptr %6, align 8, !tbaa !9
  %69 = getelementptr inbounds nuw %struct.ENTITY, ptr %68, i32 0, i32 1
  %70 = load ptr, ptr %69, align 8, !tbaa !241
  %71 = load ptr, ptr %6, align 8, !tbaa !9
  %72 = getelementptr inbounds nuw %struct.ENTITY, ptr %71, i32 0, i32 2
  %73 = load i32, ptr %72, align 8, !tbaa !242
  %74 = sext i32 %73 to i64
  %75 = getelementptr inbounds i8, ptr %70, i64 %74
  store ptr %75, ptr %9, align 8, !tbaa !4
  %76 = load ptr, ptr %8, align 8, !tbaa !4
  store ptr %76, ptr %10, align 8, !tbaa !4
  %77 = load ptr, ptr %5, align 8, !tbaa !13
  %78 = load ptr, ptr %5, align 8, !tbaa !13
  %79 = getelementptr inbounds nuw %struct.XML_ParserStruct, ptr %78, i32 0, i32 56
  %80 = load i32, ptr %79, align 4, !tbaa !138
  %81 = load ptr, ptr %5, align 8, !tbaa !13
  %82 = getelementptr inbounds nuw %struct.XML_ParserStruct, ptr %81, i32 0, i32 39
  %83 = load ptr, ptr %82, align 8, !tbaa !56
  %84 = load ptr, ptr %8, align 8, !tbaa !4
  %85 = load ptr, ptr %9, align 8, !tbaa !4
  %86 = call i32 @doContent(ptr noundef %77, i32 noundef %80, ptr noundef %83, ptr noundef %84, ptr noundef %85, ptr noundef %10, i8 noundef zeroext 0, i32 noundef 1)
  store i32 %86, ptr %11, align 4, !tbaa !177
  %87 = load i32, ptr %11, align 4, !tbaa !177
  %88 = icmp eq i32 %87, 0
  br i1 %88, label %89, label %136

89:                                               ; preds = %37
  %90 = load ptr, ptr %9, align 8, !tbaa !4
  %91 = load ptr, ptr %10, align 8, !tbaa !4
  %92 = icmp ne ptr %90, %91
  br i1 %92, label %93, label %110

93:                                               ; preds = %89
  %94 = load ptr, ptr %5, align 8, !tbaa !13
  %95 = getelementptr inbounds nuw %struct.XML_ParserStruct, ptr %94, i32 0, i32 88
  %96 = getelementptr inbounds nuw %struct.XML_ParsingStatus, ptr %95, i32 0, i32 0
  %97 = load i32, ptr %96, align 8, !tbaa !140
  %98 = icmp eq i32 %97, 3
  br i1 %98, label %99, label %110

99:                                               ; preds = %93
  %100 = load ptr, ptr %10, align 8, !tbaa !4
  %101 = load ptr, ptr %8, align 8, !tbaa !4
  %102 = ptrtoint ptr %100 to i64
  %103 = ptrtoint ptr %101 to i64
  %104 = sub i64 %102, %103
  %105 = trunc i64 %104 to i32
  %106 = load ptr, ptr %6, align 8, !tbaa !9
  %107 = getelementptr inbounds nuw %struct.ENTITY, ptr %106, i32 0, i32 3
  store i32 %105, ptr %107, align 4, !tbaa !299
  %108 = load ptr, ptr %5, align 8, !tbaa !13
  %109 = getelementptr inbounds nuw %struct.XML_ParserStruct, ptr %108, i32 0, i32 48
  store ptr @internalEntityProcessor, ptr %109, align 8, !tbaa !89
  br label %135

110:                                              ; preds = %93, %89
  %111 = load ptr, ptr %5, align 8, !tbaa !13
  %112 = getelementptr inbounds nuw %struct.XML_ParserStruct, ptr %111, i32 0, i32 53
  %113 = load ptr, ptr %112, align 8, !tbaa !66
  %114 = getelementptr inbounds nuw %struct.open_internal_entity, ptr %113, i32 0, i32 3
  %115 = load ptr, ptr %114, align 8, !tbaa !300
  %116 = load ptr, ptr %6, align 8, !tbaa !9
  %117 = icmp eq ptr %115, %116
  br i1 %117, label %118, label %134

118:                                              ; preds = %110
  %119 = load ptr, ptr %6, align 8, !tbaa !9
  %120 = getelementptr inbounds nuw %struct.ENTITY, ptr %119, i32 0, i32 8
  store i8 0, ptr %120, align 8, !tbaa !186
  %121 = load ptr, ptr %12, align 8, !tbaa !67
  %122 = getelementptr inbounds nuw %struct.open_internal_entity, ptr %121, i32 0, i32 2
  %123 = load ptr, ptr %122, align 8, !tbaa !68
  %124 = load ptr, ptr %5, align 8, !tbaa !13
  %125 = getelementptr inbounds nuw %struct.XML_ParserStruct, ptr %124, i32 0, i32 53
  store ptr %123, ptr %125, align 8, !tbaa !66
  %126 = load ptr, ptr %5, align 8, !tbaa !13
  %127 = getelementptr inbounds nuw %struct.XML_ParserStruct, ptr %126, i32 0, i32 54
  %128 = load ptr, ptr %127, align 8, !tbaa !44
  %129 = load ptr, ptr %12, align 8, !tbaa !67
  %130 = getelementptr inbounds nuw %struct.open_internal_entity, ptr %129, i32 0, i32 2
  store ptr %128, ptr %130, align 8, !tbaa !68
  %131 = load ptr, ptr %12, align 8, !tbaa !67
  %132 = load ptr, ptr %5, align 8, !tbaa !13
  %133 = getelementptr inbounds nuw %struct.XML_ParserStruct, ptr %132, i32 0, i32 54
  store ptr %131, ptr %133, align 8, !tbaa !44
  br label %134

134:                                              ; preds = %118, %110
  br label %135

135:                                              ; preds = %134, %99
  br label %136

136:                                              ; preds = %135, %37
  %137 = load i32, ptr %11, align 4, !tbaa !177
  store i32 %137, ptr %4, align 4
  store i32 1, ptr %13, align 4
  br label %138

138:                                              ; preds = %136, %35
  call void @llvm.lifetime.end.p0(i64 8, ptr %12) #10
  call void @llvm.lifetime.end.p0(i64 4, ptr %11) #10
  call void @llvm.lifetime.end.p0(i64 8, ptr %10) #10
  call void @llvm.lifetime.end.p0(i64 8, ptr %9) #10
  call void @llvm.lifetime.end.p0(i64 8, ptr %8) #10
  %139 = load i32, ptr %4, align 4
  ret i32 %139
}