; Function Attrs: nounwind uwtable
define internal fastcc i32 @processInternalEntity(ptr noundef %0, ptr noundef %1) unnamed_addr #0 {
  %3 = alloca ptr, align 8
  call void @llvm.lifetime.start.p0(i64 8, ptr nonnull %3) #23
  %4 = getelementptr inbounds nuw i8, ptr %0, i64 568
  %5 = load ptr, ptr %4, align 8, !tbaa !52
  %.not = icmp eq ptr %5, null
  br i1 %.not, label %9, label %6

6:                                                ; preds = %2
  %7 = getelementptr inbounds nuw i8, ptr %5, i64 16
  %8 = load ptr, ptr %7, align 8, !tbaa !92
  store ptr %8, ptr %4, align 8, !tbaa !52
  br label %13

9:                                                ; preds = %2
  %10 = getelementptr inbounds nuw i8, ptr %0, i64 24
  %11 = load ptr, ptr %10, align 8, !tbaa !35
  %12 = tail call ptr %11(i64 noundef 40) #23
  %.not49 = icmp eq ptr %12, null
  br i1 %.not49, label %54, label %13

13:                                               ; preds = %9, %6
  %.0 = phi ptr [ %5, %6 ], [ %12, %9 ]
  %14 = getelementptr inbounds nuw i8, ptr %1, i64 56
  store i8 1, ptr %14, align 8, !tbaa !176
  %15 = getelementptr inbounds nuw i8, ptr %1, i64 20
  store i32 0, ptr %15, align 4, !tbaa !289
  %16 = getelementptr inbounds nuw i8, ptr %0, i64 560
  %17 = load ptr, ptr %16, align 8, !tbaa !91
  %18 = getelementptr inbounds nuw i8, ptr %.0, i64 16
  store ptr %17, ptr %18, align 8, !tbaa !92
  store ptr %.0, ptr %16, align 8, !tbaa !91
  %19 = getelementptr inbounds nuw i8, ptr %.0, i64 24
  store ptr %1, ptr %19, align 8, !tbaa !290
  %20 = getelementptr inbounds nuw i8, ptr %0, i64 580
  %21 = load i32, ptr %20, align 4, !tbaa !73
  %22 = getelementptr inbounds nuw i8, ptr %.0, i64 32
  store i32 %21, ptr %22, align 8, !tbaa !291
  %23 = getelementptr inbounds nuw i8, ptr %.0, i64 36
  store i8 0, ptr %23, align 4, !tbaa !292
  %24 = getelementptr inbounds nuw i8, ptr %1, i64 8
  tail call void @llvm.memset.p0.i64(ptr noundef nonnull align 8 dereferenceable(16) %.0, i8 0, i64 16, i1 false)
  %25 = load ptr, ptr %24, align 8, !tbaa !163
  %26 = getelementptr inbounds nuw i8, ptr %1, i64 16
  %27 = load i32, ptr %26, align 8, !tbaa !164
  %28 = sext i32 %27 to i64
  %29 = getelementptr inbounds i8, ptr %25, i64 %28
  store ptr %25, ptr %3, align 8, !tbaa !185
  %30 = getelementptr inbounds nuw i8, ptr %0, i64 448
  %31 = load ptr, ptr %30, align 8, !tbaa !81
  %32 = call fastcc i32 @doContent(ptr noundef nonnull %0, i32 noundef %21, ptr noundef %31, ptr noundef %25, ptr noundef %29, ptr noundef nonnull %3, i8 noundef zeroext 0)
  %33 = icmp eq i32 %32, 0
  br i1 %33, label %34, label %54

34:                                               ; preds = %13
  %35 = load ptr, ptr %3, align 8, !tbaa !185
  %.not50 = icmp eq ptr %29, %35
  br i1 %.not50, label %46, label %36

36:                                               ; preds = %34
  %37 = getelementptr inbounds nuw i8, ptr %0, i64 896
  %38 = load i32, ptr %37, align 8, !tbaa !79
  %39 = icmp eq i32 %38, 3
  br i1 %39, label %40, label %46

40:                                               ; preds = %36
  %41 = ptrtoint ptr %35 to i64
  %42 = ptrtoint ptr %25 to i64
  %43 = sub i64 %41, %42
  %44 = trunc i64 %43 to i32
  store i32 %44, ptr %15, align 4, !tbaa !289
  %45 = getelementptr inbounds nuw i8, ptr %0, i64 520
  store ptr @internalEntityProcessor, ptr %45, align 8, !tbaa !61
  br label %54

46:                                               ; preds = %36, %34
  %47 = load ptr, ptr %16, align 8, !tbaa !91
  %48 = getelementptr inbounds nuw i8, ptr %47, i64 24
  %49 = load ptr, ptr %48, align 8, !tbaa !290
  %50 = icmp eq ptr %49, %1
  br i1 %50, label %51, label %54

51:                                               ; preds = %46
  store i8 0, ptr %14, align 8, !tbaa !176
  %52 = load ptr, ptr %18, align 8, !tbaa !92
  store ptr %52, ptr %16, align 8, !tbaa !91
  %53 = load ptr, ptr %4, align 8, !tbaa !52
  store ptr %53, ptr %18, align 8, !tbaa !92
  store ptr %.0, ptr %4, align 8, !tbaa !52
  br label %54

54:                                               ; preds = %13, %46, %51, %40, %9
  %.045 = phi i32 [ 1, %9 ], [ 0, %40 ], [ 0, %51 ], [ 0, %46 ], [ %32, %13 ]
  call void @llvm.lifetime.end.p0(i64 8, ptr nonnull %3) #23
  ret i32 %.045
}